
test:     file format elf32-littleriscv


Disassembly of section .text.init:

00000000 <_start>:
   0:	00010117          	auipc	sp,0x10
   4:	00010113          	mv	sp,sp
   8:	004000ef          	jal	ra,c <main>

Disassembly of section .text:

0000000c <main>:
   c:	fe010113          	addi	sp,sp,-32 # ffe0 <_stack_end+0x7e0>
  10:	00812e23          	sw	s0,28(sp)
  14:	02010413          	addi	s0,sp,32
  18:	fe042623          	sw	zero,-20(s0)
  1c:	fe042223          	sw	zero,-28(s0)
  20:	0480006f          	j	68 <main+0x5c>
  24:	fe042423          	sw	zero,-24(s0)
  28:	0280006f          	j	50 <main+0x44>
  2c:	fe842703          	lw	a4,-24(s0)
  30:	fec42783          	lw	a5,-20(s0)
  34:	00e7f863          	bgeu	a5,a4,44 <main+0x38>
  38:	fe442783          	lw	a5,-28(s0)
  3c:	00178793          	addi	a5,a5,1
  40:	fef42223          	sw	a5,-28(s0)
  44:	fe842783          	lw	a5,-24(s0)
  48:	00178793          	addi	a5,a5,1
  4c:	fef42423          	sw	a5,-24(s0)
  50:	fe842703          	lw	a4,-24(s0)
  54:	00e00793          	li	a5,14
  58:	fce7fae3          	bgeu	a5,a4,2c <main+0x20>
  5c:	fec42783          	lw	a5,-20(s0)
  60:	00178793          	addi	a5,a5,1
  64:	fef42623          	sw	a5,-20(s0)
  68:	fec42703          	lw	a4,-20(s0)
  6c:	00e00793          	li	a5,14
  70:	fae7fae3          	bgeu	a5,a4,24 <main+0x18>
  74:	c0001073          	unimp
  78:	c0001073          	unimp
  7c:	00000793          	li	a5,0
  80:	00078513          	mv	a0,a5
  84:	01c12403          	lw	s0,28(sp)
  88:	02010113          	addi	sp,sp,32
  8c:	00008067          	ret
