
rv32mi-p-ma_addr:     file format elf32-littleriscv


Disassembly of section .text.init:

00000000 <_start>:
   0:	0540006f          	j	54 <reset_vector>

00000004 <trap_vector>:
   4:	34202f73          	csrr	t5,mcause
   8:	00800f93          	li	t6,8
   c:	03ff0a63          	beq	t5,t6,40 <write_tohost>
  10:	00900f93          	li	t6,9
  14:	03ff0663          	beq	t5,t6,40 <write_tohost>
  18:	00b00f93          	li	t6,11
  1c:	03ff0263          	beq	t5,t6,40 <write_tohost>
  20:	00000f17          	auipc	t5,0x0
  24:	338f0f13          	addi	t5,t5,824 # 358 <mtvec_handler>
  28:	000f0463          	beqz	t5,30 <trap_vector+0x2c>
  2c:	000f0067          	jr	t5
  30:	34202f73          	csrr	t5,mcause
  34:	000f5463          	bgez	t5,3c <handle_exception>
  38:	0040006f          	j	3c <handle_exception>

0000003c <handle_exception>:
  3c:	5391e193          	ori	gp,gp,1337

00000040 <write_tohost>:
  40:	00001f17          	auipc	t5,0x1
  44:	fc3f2023          	sw	gp,-64(t5) # 1000 <tohost>
  48:	00001f17          	auipc	t5,0x1
  4c:	fa0f2e23          	sw	zero,-68(t5) # 1004 <tohost+0x4>
  50:	ff1ff06f          	j	40 <write_tohost>

00000054 <reset_vector>:
  54:	00000093          	li	ra,0
  58:	00000113          	li	sp,0
  5c:	00000193          	li	gp,0
  60:	00000213          	li	tp,0
  64:	00000293          	li	t0,0
  68:	00000313          	li	t1,0
  6c:	00000393          	li	t2,0
  70:	00000413          	li	s0,0
  74:	00000493          	li	s1,0
  78:	00000513          	li	a0,0
  7c:	00000593          	li	a1,0
  80:	00000613          	li	a2,0
  84:	00000693          	li	a3,0
  88:	00000713          	li	a4,0
  8c:	00000793          	li	a5,0
  90:	00000813          	li	a6,0
  94:	00000893          	li	a7,0
  98:	00000913          	li	s2,0
  9c:	00000993          	li	s3,0
  a0:	00000a13          	li	s4,0
  a4:	00000a93          	li	s5,0
  a8:	00000b13          	li	s6,0
  ac:	00000b93          	li	s7,0
  b0:	00000c13          	li	s8,0
  b4:	00000c93          	li	s9,0
  b8:	00000d13          	li	s10,0
  bc:	00000d93          	li	s11,0
  c0:	00000e13          	li	t3,0
  c4:	00000e93          	li	t4,0
  c8:	00000f13          	li	t5,0
  cc:	00000f93          	li	t6,0
  d0:	f1402573          	csrr	a0,mhartid
  d4:	00051063          	bnez	a0,d4 <reset_vector+0x80>
  d8:	00000297          	auipc	t0,0x0
  dc:	01028293          	addi	t0,t0,16 # e8 <reset_vector+0x94>
  e0:	30529073          	csrw	mtvec,t0
  e4:	74445073          	csrwi	0x744,8
  e8:	00000297          	auipc	t0,0x0
  ec:	01028293          	addi	t0,t0,16 # f8 <reset_vector+0xa4>
  f0:	30529073          	csrw	mtvec,t0
  f4:	18005073          	csrwi	satp,0
  f8:	00000297          	auipc	t0,0x0
  fc:	02028293          	addi	t0,t0,32 # 118 <reset_vector+0xc4>
 100:	30529073          	csrw	mtvec,t0
 104:	800002b7          	lui	t0,0x80000
 108:	fff28293          	addi	t0,t0,-1 # 7fffffff <_end+0x7fffdeef>
 10c:	3b029073          	csrw	pmpaddr0,t0
 110:	01f00293          	li	t0,31
 114:	3a029073          	csrw	pmpcfg0,t0
 118:	30405073          	csrwi	mie,0
 11c:	00000297          	auipc	t0,0x0
 120:	01428293          	addi	t0,t0,20 # 130 <reset_vector+0xdc>
 124:	30529073          	csrw	mtvec,t0
 128:	30205073          	csrwi	medeleg,0
 12c:	30305073          	csrwi	mideleg,0
 130:	00000193          	li	gp,0
 134:	00000297          	auipc	t0,0x0
 138:	ed028293          	addi	t0,t0,-304 # 4 <trap_vector>
 13c:	30529073          	csrw	mtvec,t0
 140:	00100513          	li	a0,1
 144:	01f51513          	slli	a0,a0,0x1f
 148:	00054c63          	bltz	a0,160 <reset_vector+0x10c>
 14c:	0ff0000f          	fence
 150:	00100193          	li	gp,1
 154:	05d00893          	li	a7,93
 158:	00000513          	li	a0,0
 15c:	00000073          	ecall
 160:	00000293          	li	t0,0
 164:	00028a63          	beqz	t0,178 <reset_vector+0x124>
 168:	10529073          	csrw	stvec,t0
 16c:	0000b2b7          	lui	t0,0xb
 170:	10928293          	addi	t0,t0,265 # b109 <_end+0x8ff9>
 174:	30229073          	csrw	medeleg,t0
 178:	30005073          	csrwi	mstatus,0
 17c:	00002537          	lui	a0,0x2
 180:	80050513          	addi	a0,a0,-2048 # 1800 <fromhost+0x7c0>
 184:	30052073          	csrs	mstatus,a0
 188:	00000297          	auipc	t0,0x0
 18c:	01428293          	addi	t0,t0,20 # 19c <reset_vector+0x148>
 190:	34129073          	csrw	mepc,t0
 194:	f1402573          	csrr	a0,mhartid
 198:	30200073          	mret
 19c:	00002417          	auipc	s0,0x2
 1a0:	e6440413          	addi	s0,s0,-412 # 2000 <begin_signature>
 1a4:	00400493          	li	s1,4
 1a8:	00500913          	li	s2,5
 1ac:	00200193          	li	gp,2
 1b0:	00000397          	auipc	t2,0x0
 1b4:	01c38393          	addi	t2,t2,28 # 1cc <reset_vector+0x178>
 1b8:	00140313          	addi	t1,s0,1
 1bc:	00141303          	lh	t1,1(s0)
 1c0:	ffffc3b7          	lui	t2,0xffffc
 1c4:	bcc38393          	addi	t2,t2,-1076 # ffffbbcc <_end+0xffff9abc>
 1c8:	16731063          	bne	t1,t2,328 <fail>
 1cc:	00300193          	li	gp,3
 1d0:	00000397          	auipc	t2,0x0
 1d4:	01c38393          	addi	t2,t2,28 # 1ec <reset_vector+0x198>
 1d8:	00140313          	addi	t1,s0,1
 1dc:	00145303          	lhu	t1,1(s0)
 1e0:	0000c3b7          	lui	t2,0xc
 1e4:	bcc38393          	addi	t2,t2,-1076 # bbcc <_end+0x9abc>
 1e8:	14731063          	bne	t1,t2,328 <fail>
 1ec:	00400193          	li	gp,4
 1f0:	00000397          	auipc	t2,0x0
 1f4:	01c38393          	addi	t2,t2,28 # 20c <reset_vector+0x1b8>
 1f8:	00140313          	addi	t1,s0,1
 1fc:	00142303          	lw	t1,1(s0)
 200:	99aac3b7          	lui	t2,0x99aac
 204:	bcc38393          	addi	t2,t2,-1076 # 99aabbcc <_end+0x99aa9abc>
 208:	12731063          	bne	t1,t2,328 <fail>
 20c:	00500193          	li	gp,5
 210:	00000397          	auipc	t2,0x0
 214:	01c38393          	addi	t2,t2,28 # 22c <reset_vector+0x1d8>
 218:	00240313          	addi	t1,s0,2
 21c:	00242303          	lw	t1,2(s0)
 220:	8899b3b7          	lui	t2,0x8899b
 224:	abb38393          	addi	t2,t2,-1349 # 8899aabb <_end+0x889989ab>
 228:	10731063          	bne	t1,t2,328 <fail>
 22c:	00600193          	li	gp,6
 230:	00000397          	auipc	t2,0x0
 234:	01c38393          	addi	t2,t2,28 # 24c <reset_vector+0x1f8>
 238:	00340313          	addi	t1,s0,3
 23c:	00342303          	lw	t1,3(s0)
 240:	7788a3b7          	lui	t2,0x7788a
 244:	9aa38393          	addi	t2,t2,-1622 # 778899aa <_end+0x7788789a>
 248:	0e731063          	bne	t1,t2,328 <fail>
 24c:	00600493          	li	s1,6
 250:	00700913          	li	s2,7
 254:	01600193          	li	gp,22
 258:	00000397          	auipc	t2,0x0
 25c:	03038393          	addi	t2,t2,48 # 288 <reset_vector+0x234>
 260:	00140313          	addi	t1,s0,1
 264:	000410a3          	sh	zero,1(s0)
 268:	00040303          	lb	t1,0(s0)
 26c:	0a030e63          	beqz	t1,328 <fail>
 270:	00340303          	lb	t1,3(s0)
 274:	0a030a63          	beqz	t1,328 <fail>
 278:	00140303          	lb	t1,1(s0)
 27c:	0a031663          	bnez	t1,328 <fail>
 280:	00240303          	lb	t1,2(s0)
 284:	0a031263          	bnez	t1,328 <fail>
 288:	01700193          	li	gp,23
 28c:	00000397          	auipc	t2,0x0
 290:	03038393          	addi	t2,t2,48 # 2bc <reset_vector+0x268>
 294:	00540313          	addi	t1,s0,5
 298:	000422a3          	sw	zero,5(s0)
 29c:	00440303          	lb	t1,4(s0)
 2a0:	08030463          	beqz	t1,328 <fail>
 2a4:	00940303          	lb	t1,9(s0)
 2a8:	08030063          	beqz	t1,328 <fail>
 2ac:	00540303          	lb	t1,5(s0)
 2b0:	06031c63          	bnez	t1,328 <fail>
 2b4:	00840303          	lb	t1,8(s0)
 2b8:	06031863          	bnez	t1,328 <fail>
 2bc:	01800193          	li	gp,24
 2c0:	00000397          	auipc	t2,0x0
 2c4:	03038393          	addi	t2,t2,48 # 2f0 <reset_vector+0x29c>
 2c8:	00a40313          	addi	t1,s0,10
 2cc:	00042523          	sw	zero,10(s0)
 2d0:	00940303          	lb	t1,9(s0)
 2d4:	04030a63          	beqz	t1,328 <fail>
 2d8:	00e40303          	lb	t1,14(s0)
 2dc:	04030663          	beqz	t1,328 <fail>
 2e0:	00a40303          	lb	t1,10(s0)
 2e4:	04031263          	bnez	t1,328 <fail>
 2e8:	00d40303          	lb	t1,13(s0)
 2ec:	02031e63          	bnez	t1,328 <fail>
 2f0:	01900193          	li	gp,25
 2f4:	00000397          	auipc	t2,0x0
 2f8:	03038393          	addi	t2,t2,48 # 324 <reset_vector+0x2d0>
 2fc:	00f40313          	addi	t1,s0,15
 300:	000427a3          	sw	zero,15(s0)
 304:	00e40303          	lb	t1,14(s0)
 308:	02030063          	beqz	t1,328 <fail>
 30c:	01340303          	lb	t1,19(s0)
 310:	00030c63          	beqz	t1,328 <fail>
 314:	00f40303          	lb	t1,15(s0)
 318:	00031863          	bnez	t1,328 <fail>
 31c:	01240303          	lb	t1,18(s0)
 320:	00031463          	bnez	t1,328 <fail>
 324:	02301063          	bne	zero,gp,344 <pass>

00000328 <fail>:
 328:	0ff0000f          	fence
 32c:	00018063          	beqz	gp,32c <fail+0x4>
 330:	00119193          	slli	gp,gp,0x1
 334:	0011e193          	ori	gp,gp,1
 338:	05d00893          	li	a7,93
 33c:	00018513          	mv	a0,gp
 340:	00000073          	ecall

00000344 <pass>:
 344:	0ff0000f          	fence
 348:	00100193          	li	gp,1
 34c:	05d00893          	li	a7,93
 350:	00000513          	li	a0,0
 354:	00000073          	ecall

00000358 <mtvec_handler>:
 358:	342022f3          	csrr	t0,mcause
 35c:	00928663          	beq	t0,s1,368 <mtvec_handler+0x10>
 360:	01228463          	beq	t0,s2,368 <mtvec_handler+0x10>
 364:	fc5ff06f          	j	328 <fail>
 368:	343022f3          	csrr	t0,mtval
 36c:	00028863          	beqz	t0,37c <mtvec_handler+0x24>
 370:	fa629ce3          	bne	t0,t1,328 <fail>
 374:	00028283          	lb	t0,0(t0)
 378:	fa0288e3          	beqz	t0,328 <fail>
 37c:	34139073          	csrw	mepc,t2
 380:	30200073          	mret
 384:	c0001073          	unimp
 388:	0000                	unimp
 38a:	0000                	unimp
 38c:	0000                	unimp
 38e:	0000                	unimp
 390:	0000                	unimp
 392:	0000                	unimp
 394:	0000                	unimp
 396:	0000                	unimp
 398:	0000                	unimp
 39a:	0000                	unimp
 39c:	0000                	unimp
 39e:	0000                	unimp
 3a0:	0000                	unimp
 3a2:	0000                	unimp
 3a4:	0000                	unimp
 3a6:	0000                	unimp
 3a8:	0000                	unimp
 3aa:	0000                	unimp
 3ac:	0000                	unimp
 3ae:	0000                	unimp
 3b0:	0000                	unimp
 3b2:	0000                	unimp
 3b4:	0000                	unimp
 3b6:	0000                	unimp
 3b8:	0000                	unimp
 3ba:	0000                	unimp
